; ModuleID = '46/842.c'
source_filename = "46/842.c"
target datalayout = "e-m:e-p270:32:32-p271:32:32-p272:64:64-i64:64-f80:128-n8:16:32:64-S128"
target triple = "x86_64-pc-linux-gnu"

@.str = private unnamed_addr constant [5 x i8] c"%d%d\00", align 1
@.str.1 = private unnamed_addr constant [3 x i8] c"%d\00", align 1
@.str.2 = private unnamed_addr constant [4 x i8] c"%d\0A\00", align 1

; Function Attrs: noinline nounwind uwtable
define dso_local i32 @main() #0 {
  %1 = alloca i32, align 4
  %2 = alloca i32, align 4
  %3 = alloca i32, align 4
  %4 = alloca [100 x [100 x i32]], align 16
  %5 = alloca i32, align 4
  %6 = alloca i32, align 4
  %7 = alloca i32, align 4
  %8 = alloca i32, align 4
  store i32 0, i32* %1, align 4
  %9 = call i32 (i8*, ...) @__isoc99_scanf(i8* getelementptr inbounds ([5 x i8], [5 x i8]* @.str, i64 0, i64 0), i32* %2, i32* %3)
  store i32 0, i32* %5, align 4
  br label %10

10:                                               ; preds = %31, %0
  %11 = load i32, i32* %5, align 4
  %12 = load i32, i32* %2, align 4
  %13 = icmp slt i32 %11, %12
  br i1 %13, label %14, label %34

14:                                               ; preds = %10
  store i32 0, i32* %6, align 4
  br label %15

15:                                               ; preds = %27, %14
  %16 = load i32, i32* %6, align 4
  %17 = load i32, i32* %3, align 4
  %18 = icmp slt i32 %16, %17
  br i1 %18, label %19, label %30

19:                                               ; preds = %15
  %20 = load i32, i32* %5, align 4
  %21 = sext i32 %20 to i64
  %22 = getelementptr inbounds [100 x [100 x i32]], [100 x [100 x i32]]* %4, i64 0, i64 %21
  %23 = load i32, i32* %6, align 4
  %24 = sext i32 %23 to i64
  %25 = getelementptr inbounds [100 x i32], [100 x i32]* %22, i64 0, i64 %24
  %26 = call i32 (i8*, ...) @__isoc99_scanf(i8* getelementptr inbounds ([3 x i8], [3 x i8]* @.str.1, i64 0, i64 0), i32* %25)
  br label %27

27:                                               ; preds = %19
  %28 = load i32, i32* %6, align 4
  %29 = add nsw i32 %28, 1
  store i32 %29, i32* %6, align 4
  br label %15

30:                                               ; preds = %15
  br label %31

31:                                               ; preds = %30
  %32 = load i32, i32* %5, align 4
  %33 = add nsw i32 %32, 1
  store i32 %33, i32* %5, align 4
  br label %10

34:                                               ; preds = %10
  store i32 0, i32* %7, align 4
  store i32 0, i32* %8, align 4
  br label %35

35:                                               ; preds = %140, %34
  %36 = load i32, i32* %8, align 4
  store i32 %36, i32* %5, align 4
  br label %37

37:                                               ; preds = %54, %35
  %38 = load i32, i32* %5, align 4
  %39 = load i32, i32* %3, align 4
  %40 = load i32, i32* %8, align 4
  %41 = sub nsw i32 %39, %40
  %42 = icmp slt i32 %38, %41
  br i1 %42, label %43, label %57

43:                                               ; preds = %37
  %44 = load i32, i32* %8, align 4
  %45 = sext i32 %44 to i64
  %46 = getelementptr inbounds [100 x [100 x i32]], [100 x [100 x i32]]* %4, i64 0, i64 %45
  %47 = load i32, i32* %5, align 4
  %48 = sext i32 %47 to i64
  %49 = getelementptr inbounds [100 x i32], [100 x i32]* %46, i64 0, i64 %48
  %50 = load i32, i32* %49, align 4
  %51 = call i32 (i8*, ...) @printf(i8* getelementptr inbounds ([4 x i8], [4 x i8]* @.str.2, i64 0, i64 0), i32 %50)
  %52 = load i32, i32* %7, align 4
  %53 = add nsw i32 %52, 1
  store i32 %53, i32* %7, align 4
  br label %54

54:                                               ; preds = %43
  %55 = load i32, i32* %5, align 4
  %56 = add nsw i32 %55, 1
  store i32 %56, i32* %5, align 4
  br label %37

57:                                               ; preds = %37
  %58 = load i32, i32* %8, align 4
  %59 = add nsw i32 %58, 1
  store i32 %59, i32* %6, align 4
  br label %60

60:                                               ; preds = %80, %57
  %61 = load i32, i32* %6, align 4
  %62 = load i32, i32* %2, align 4
  %63 = load i32, i32* %8, align 4
  %64 = sub nsw i32 %62, %63
  %65 = icmp slt i32 %61, %64
  br i1 %65, label %66, label %83

66:                                               ; preds = %60
  %67 = load i32, i32* %6, align 4
  %68 = sext i32 %67 to i64
  %69 = getelementptr inbounds [100 x [100 x i32]], [100 x [100 x i32]]* %4, i64 0, i64 %68
  %70 = load i32, i32* %3, align 4
  %71 = load i32, i32* %8, align 4
  %72 = sub nsw i32 %70, %71
  %73 = sub nsw i32 %72, 1
  %74 = sext i32 %73 to i64
  %75 = getelementptr inbounds [100 x i32], [100 x i32]* %69, i64 0, i64 %74
  %76 = load i32, i32* %75, align 4
  %77 = call i32 (i8*, ...) @printf(i8* getelementptr inbounds ([4 x i8], [4 x i8]* @.str.2, i64 0, i64 0), i32 %76)
  %78 = load i32, i32* %7, align 4
  %79 = add nsw i32 %78, 1
  store i32 %79, i32* %7, align 4
  br label %80

80:                                               ; preds = %66
  %81 = load i32, i32* %6, align 4
  %82 = add nsw i32 %81, 1
  store i32 %82, i32* %6, align 4
  br label %60

83:                                               ; preds = %60
  %84 = load i32, i32* %7, align 4
  %85 = load i32, i32* %2, align 4
  %86 = load i32, i32* %3, align 4
  %87 = mul nsw i32 %85, %86
  %88 = icmp eq i32 %84, %87
  br i1 %88, label %89, label %90

89:                                               ; preds = %83
  br label %143

90:                                               ; preds = %83
  %91 = load i32, i32* %3, align 4
  %92 = sub nsw i32 %91, 2
  %93 = load i32, i32* %8, align 4
  %94 = sub nsw i32 %92, %93
  store i32 %94, i32* %5, align 4
  br label %95

95:                                               ; preds = %113, %90
  %96 = load i32, i32* %5, align 4
  %97 = load i32, i32* %8, align 4
  %98 = icmp sge i32 %96, %97
  br i1 %98, label %99, label %116

99:                                               ; preds = %95
  %100 = load i32, i32* %2, align 4
  %101 = load i32, i32* %8, align 4
  %102 = sub nsw i32 %100, %101
  %103 = sub nsw i32 %102, 1
  %104 = sext i32 %103 to i64
  %105 = getelementptr inbounds [100 x [100 x i32]], [100 x [100 x i32]]* %4, i64 0, i64 %104
  %106 = load i32, i32* %5, align 4
  %107 = sext i32 %106 to i64
  %108 = getelementptr inbounds [100 x i32], [100 x i32]* %105, i64 0, i64 %107
  %109 = load i32, i32* %108, align 4
  %110 = call i32 (i8*, ...) @printf(i8* getelementptr inbounds ([4 x i8], [4 x i8]* @.str.2, i64 0, i64 0), i32 %109)
  %111 = load i32, i32* %7, align 4
  %112 = add nsw i32 %111, 1
  store i32 %112, i32* %7, align 4
  br label %113

113:                                              ; preds = %99
  %114 = load i32, i32* %5, align 4
  %115 = add nsw i32 %114, -1
  store i32 %115, i32* %5, align 4
  br label %95

116:                                              ; preds = %95
  %117 = load i32, i32* %2, align 4
  %118 = sub nsw i32 %117, 2
  %119 = load i32, i32* %8, align 4
  %120 = sub nsw i32 %118, %119
  store i32 %120, i32* %6, align 4
  br label %121

121:                                              ; preds = %136, %116
  %122 = load i32, i32* %6, align 4
  %123 = load i32, i32* %8, align 4
  %124 = icmp sgt i32 %122, %123
  br i1 %124, label %125, label %139

125:                                              ; preds = %121
  %126 = load i32, i32* %6, align 4
  %127 = sext i32 %126 to i64
  %128 = getelementptr inbounds [100 x [100 x i32]], [100 x [100 x i32]]* %4, i64 0, i64 %127
  %129 = load i32, i32* %8, align 4
  %130 = sext i32 %129 to i64
  %131 = getelementptr inbounds [100 x i32], [100 x i32]* %128, i64 0, i64 %130
  %132 = load i32, i32* %131, align 4
  %133 = call i32 (i8*, ...) @printf(i8* getelementptr inbounds ([4 x i8], [4 x i8]* @.str.2, i64 0, i64 0), i32 %132)
  %134 = load i32, i32* %7, align 4
  %135 = add nsw i32 %134, 1
  store i32 %135, i32* %7, align 4
  br label %136

136:                                              ; preds = %125
  %137 = load i32, i32* %6, align 4
  %138 = add nsw i32 %137, -1
  store i32 %138, i32* %6, align 4
  br label %121

139:                                              ; preds = %121
  br label %140

140:                                              ; preds = %139
  %141 = load i32, i32* %8, align 4
  %142 = add nsw i32 %141, 1
  store i32 %142, i32* %8, align 4
  br label %35

143:                                              ; preds = %89
  ret i32 0
}

declare dso_local i32 @__isoc99_scanf(i8*, ...) #1

declare dso_local i32 @printf(i8*, ...) #1


!llvm.module.flags = !{!0}
!llvm.ident = !{!1}

!0 = !{i32 1, !"wchar_size", i32 4}
!1 = !{!"clang version 10.0.0-4ubuntu1 "}
